---
triple:          'x86_64-apple-darwin'
binary-path:     '/Users/hassanchowdhry/Desktop/Workspace/Repos/cses-cpp/Graph_Algorithms/Round-Trip/main'
relocations:
  - { offset: 0x2145C, size: 0x8, addend: 0x0, symName: __ZStL8__ioinit, symObjAddr: 0x9BE8F, symBinAddr: 0x10000A004, symSize: 0x0 }
  - { offset: 0x21926, size: 0x8, addend: 0x0, symName: _MOD, symObjAddr: 0x4250, symBinAddr: 0x10000A000, symSize: 0x0 }
  - { offset: 0x220FE, size: 0x8, addend: 0x0, symName: __GLOBAL__sub_I_main.cpp, symObjAddr: 0x438D, symBinAddr: 0x100004A6E, symSize: 0xB }
  - { offset: 0x22116, size: 0x8, addend: 0x0, symName: __Z41__static_initialization_and_destruction_0v, symObjAddr: 0x4354, symBinAddr: 0x100004A35, symSize: 0x39 }
  - { offset: 0x2212E, size: 0x8, addend: 0x0, symName: __ZNSt10_Head_baseILm0ERKiLb0EE7_M_headERS2_, symObjAddr: 0x4234, symBinAddr: 0x100004A24, symSize: 0x11 }
  - { offset: 0x22157, size: 0x8, addend: 0x0, symName: __ZNSt11_Tuple_implILm0EJRKiEE7_M_headERS2_, symObjAddr: 0x421A, symBinAddr: 0x100004A0A, symSize: 0x1A }
  - { offset: 0x2219F, size: 0x8, addend: 0x0, symName: __ZNSt12_Vector_baseIiSaIiEE17_Vector_impl_dataC2Ev, symObjAddr: 0x41EC, symBinAddr: 0x1000049DC, symSize: 0x2E }
  - { offset: 0x221C1, size: 0x8, addend: 0x0, symName: __ZSt12__get_helperILm0ERKiJEERT0_RSt11_Tuple_implIXT_EJS2_DpT1_EE, symObjAddr: 0x41D1, symBinAddr: 0x1000049C1, symSize: 0x1B }
  - { offset: 0x22221, size: 0x8, addend: 0x0, symName: __ZNSt12_Vector_baseIiSaIiEE12_Vector_implC1Ev, symObjAddr: 0x41A4, symBinAddr: 0x100004994, symSize: 0x2D }
  - { offset: 0x22289, size: 0x8, addend: 0x0, symName: __ZSt3getILm0EJRKiEERNSt13tuple_elementIXT_ESt5tupleIJDpT0_EEE4typeERS6_, symObjAddr: 0x418A, symBinAddr: 0x10000497A, symSize: 0x1A }
  - { offset: 0x222CC, size: 0x8, addend: 0x0, symName: __ZNSt12_Vector_baseIiSaIiEE13_M_deallocateEPim, symObjAddr: 0x413C, symBinAddr: 0x10000492C, symSize: 0x4E }
  - { offset: 0x223B8, size: 0x8, addend: 0x0, symName: __ZNSt4pairIKiSt6vectorIiSaIiEEEC1IJRS0_EJLm0EEJEJEEERSt5tupleIJDpT_EERS7_IJDpT1_EESt12_Index_tupleIJXspT0_EEESG_IJXspT2_EEE, symObjAddr: 0x40DC, symBinAddr: 0x1000048CC, symSize: 0x60 }
  - { offset: 0x22445, size: 0x8, addend: 0x0, symName: __ZNSt6vectorIiSaIiEEC1Ev, symObjAddr: 0x40C0, symBinAddr: 0x1000048B0, symSize: 0x1C }
  - { offset: 0x22485, size: 0x8, addend: 0x0, symName: __ZNSt12_Vector_baseIiSaIiEEC2Ev, symObjAddr: 0x40A4, symBinAddr: 0x100004894, symSize: 0x1C }
  - { offset: 0x22514, size: 0x8, addend: 0x0, symName: __ZNSt4pairIKiiEC1IJRS0_EJLm0EEJEJEEERSt5tupleIJDpT_EERS4_IJDpT1_EESt12_Index_tupleIJXspT0_EEESD_IJXspT2_EEE, symObjAddr: 0x4066, symBinAddr: 0x100004856, symSize: 0x3E }
  - { offset: 0x225AB, size: 0x8, addend: 0x0, symName: __ZNSt12_Vector_baseIiSaIiEED2Ev, symObjAddr: 0x4018, symBinAddr: 0x100004808, symSize: 0x4E }
  - { offset: 0x225F8, size: 0x8, addend: 0x0, symName: __ZNSt12_Vector_baseIiSaIiEE12_Vector_implD1Ev, symObjAddr: 0x3FF4, symBinAddr: 0x1000047E4, symSize: 0x24 }
  - { offset: 0x2268C, size: 0x8, addend: 0x0, symName: __ZNSt4pairIKiSt6vectorIiSaIiEEEC1IJRS0_EJEEESt21piecewise_construct_tSt5tupleIJDpT_EES8_IJDpT0_EE, symObjAddr: 0x3FCA, symBinAddr: 0x1000047BA, symSize: 0x2A }
  - { offset: 0x22729, size: 0x8, addend: 0x0, symName: __ZNSt4pairIKiiEC1IJRS0_EJEEESt21piecewise_construct_tSt5tupleIJDpT_EES5_IJDpT0_EE, symObjAddr: 0x3FA0, symBinAddr: 0x100004790, symSize: 0x2A }
  - { offset: 0x227A3, size: 0x8, addend: 0x0, symName: __ZNSt11_Tuple_implILm0EJRKiEEC2EOS2_, symObjAddr: 0x3F82, symBinAddr: 0x100004772, symSize: 0x1E }
  - { offset: 0x2280C, size: 0x8, addend: 0x0, symName: __ZNSt6vectorIiSaIiEED1Ev, symObjAddr: 0x3F2C, symBinAddr: 0x10000471C, symSize: 0x56 }
  - { offset: 0x2286C, size: 0x8, addend: 0x0, symName: __ZNK9__gnu_cxx16__aligned_membufISt4pairIKiSt6vectorIiSaIiEEEE7_M_addrEv, symObjAddr: 0x3F1E, symBinAddr: 0x10000470E, symSize: 0xE }
  - { offset: 0x228FA, size: 0x8, addend: 0x0, symName: __ZNSt15__new_allocatorISt13_Rb_tree_nodeISt4pairIKiSt6vectorIiSaIiEEEEE8allocateEmPKv, symObjAddr: 0x3EB6, symBinAddr: 0x1000046A6, symSize: 0x68 }
  - { offset: 0x229FB, size: 0x8, addend: 0x0, symName: __ZNSt5tupleIJRKiEEC1EOS2_, symObjAddr: 0x3E90, symBinAddr: 0x100004680, symSize: 0x26 }
  - { offset: 0x22A2A, size: 0x8, addend: 0x0, symName: __ZNSt15__new_allocatorISt13_Rb_tree_nodeISt4pairIKiiEEE8allocateEmPKv, symObjAddr: 0x3E1E, symBinAddr: 0x10000460E, symSize: 0x72 }
  - { offset: 0x22ABA, size: 0x8, addend: 0x0, symName: __ZNK9__gnu_cxx16__aligned_membufISt4pairIKiiEE7_M_addrEv, symObjAddr: 0x3E10, symBinAddr: 0x100004600, symSize: 0xE }
  - { offset: 0x22AF6, size: 0x8, addend: 0x0, symName: __ZNSt12_Destroy_auxILb1EE9__destroyIPiEEvT_S3_, symObjAddr: 0x3E00, symBinAddr: 0x1000045F0, symSize: 0x10 }
  - { offset: 0x22B2E, size: 0x8, addend: 0x0, symName: __ZNSt15__new_allocatorISt13_Rb_tree_nodeISt4pairIKiiEEE10deallocateEPS4_m, symObjAddr: 0x3DC6, symBinAddr: 0x1000045B6, symSize: 0x3A }
  - { offset: 0x22BA4, size: 0x8, addend: 0x0, symName: __ZNSt15__new_allocatorISt13_Rb_tree_nodeISt4pairIKiSt6vectorIiSaIiEEEEE10deallocateEPS7_m, symObjAddr: 0x3D96, symBinAddr: 0x100004586, symSize: 0x30 }
  - { offset: 0x22C42, size: 0x8, addend: 0x0, symName: __ZNSt4pairIKiSt6vectorIiSaIiEEED1Ev, symObjAddr: 0x3D76, symBinAddr: 0x100004566, symSize: 0x20 }
  - { offset: 0x22C68, size: 0x8, addend: 0x0, symName: __ZNK9__gnu_cxx16__aligned_membufISt4pairIKiSt6vectorIiSaIiEEEE6_M_ptrEv, symObjAddr: 0x3D5C, symBinAddr: 0x10000454C, symSize: 0x1A }
  - { offset: 0x22C9C, size: 0x8, addend: 0x0, symName: __ZSt7forwardIRPSt13_Rb_tree_nodeISt4pairIKiSt6vectorIiSaIiEEEEEOT_RNSt16remove_referenceISA_E4typeE, symObjAddr: 0x3D4E, symBinAddr: 0x10000453E, symSize: 0xE }
  - { offset: 0x22D58, size: 0x8, addend: 0x0, symName: __ZSt7forwardIRPSt13_Rb_tree_nodeISt4pairIKiiEEEOT_RNSt16remove_referenceIS7_E4typeE, symObjAddr: 0x3D40, symBinAddr: 0x100004530, symSize: 0xE }
  - { offset: 0x22E0A, size: 0x8, addend: 0x0, symName: __ZNK9__gnu_cxx16__aligned_membufISt4pairIKiiEE6_M_ptrEv, symObjAddr: 0x3D26, symBinAddr: 0x100004516, symSize: 0x1A }
  - { offset: 0x22E30, size: 0x8, addend: 0x0, symName: __ZSt14__relocate_a_1IiiENSt9enable_ifIXsrSt24__is_bitwise_relocatableIT_vE5valueEPS2_E4typeES4_S4_S4_RSaIT0_E, symObjAddr: 0x3CC3, symBinAddr: 0x1000044B3, symSize: 0x63 }
  - { offset: 0x22EB0, size: 0x8, addend: 0x0, symName: __ZSt12__niter_baseIPiET_S1_, symObjAddr: 0x3CB5, symBinAddr: 0x1000044A5, symSize: 0xE }
  - { offset: 0x22EE7, size: 0x8, addend: 0x0, symName: __ZNSt15__new_allocatorIiE8allocateEmPKv, symObjAddr: 0x3C4E, symBinAddr: 0x10000443E, symSize: 0x67 }
  - { offset: 0x22F73, size: 0x8, addend: 0x0, symName: __ZNKSt12_Vector_baseIiSaIiEE19_M_get_Tp_allocatorEv, symObjAddr: 0x3C40, symBinAddr: 0x100004430, symSize: 0xE }
  - { offset: 0x22F99, size: 0x8, addend: 0x0, symName: __ZNSt6vectorIiSaIiEE11_S_max_sizeERKS0_, symObjAddr: 0x3BE5, symBinAddr: 0x1000043D5, symSize: 0x5B }
  - { offset: 0x23051, size: 0x8, addend: 0x0, symName: __ZSt8_DestroyIPiEvT_S1_, symObjAddr: 0x3BBF, symBinAddr: 0x1000043AF, symSize: 0x26 }
  - { offset: 0x230AD, size: 0x8, addend: 0x0, symName: __ZNSt15__new_allocatorIPiE8allocateEmPKv, symObjAddr: 0x3B58, symBinAddr: 0x100004348, symSize: 0x67 }
  - { offset: 0x23198, size: 0x8, addend: 0x0, symName: __ZNSt8_Rb_treeIiSt4pairIKiiESt10_Select1stIS2_ESt4lessIiESaIS2_EE21_M_get_Node_allocatorEv, symObjAddr: 0x3B4A, symBinAddr: 0x10000433A, symSize: 0xE }
  - { offset: 0x23221, size: 0x8, addend: 0x0, symName: __ZNSt8_Rb_treeIiSt4pairIKiSt6vectorIiSaIiEEESt10_Select1stIS5_ESt4lessIiESaIS5_EE21_M_get_Node_allocatorEv, symObjAddr: 0x3B3C, symBinAddr: 0x10000432C, symSize: 0xE }
  - { offset: 0x2324B, size: 0x8, addend: 0x0, symName: __ZNKSt10_Select1stISt4pairIKiSt6vectorIiSaIiEEEEclERKS5_, symObjAddr: 0x3B2A, symBinAddr: 0x10000431A, symSize: 0x12 }
  - { offset: 0x23286, size: 0x8, addend: 0x0, symName: __ZNKSt13_Rb_tree_nodeISt4pairIKiSt6vectorIiSaIiEEEE9_M_valptrEv, symObjAddr: 0x3B0C, symBinAddr: 0x1000042FC, symSize: 0x1E }
  - { offset: 0x232F8, size: 0x8, addend: 0x0, symName: __ZNSt4pairIPSt18_Rb_tree_node_baseS1_EC1IRPSt13_Rb_tree_nodeIS_IKiSt6vectorIiSaIiEEEERS1_Lb1EEEOT_OT0_, symObjAddr: 0x3AC8, symBinAddr: 0x1000042B8, symSize: 0x44 }
  - { offset: 0x23342, size: 0x8, addend: 0x0, symName: __ZNSt8_Rb_treeIiSt4pairIKiSt6vectorIiSaIiEEESt10_Select1stIS5_ESt4lessIiESaIS5_EE5beginEv, symObjAddr: 0x3A9E, symBinAddr: 0x10000428E, symSize: 0x2A }
  - { offset: 0x2336C, size: 0x8, addend: 0x0, symName: __ZNSt8_Rb_treeIiSt4pairIKiSt6vectorIiSaIiEEESt10_Select1stIS5_ESt4lessIiESaIS5_EE17_M_construct_nodeIJRKSt21piecewise_construct_tSt5tupleIJRS1_EESG_IJEEEEEvPSt13_Rb_tree_nodeIS5_EDpOT_, symObjAddr: 0x38E2, symBinAddr: 0x1000040D2, symSize: 0x1BC }
  - { offset: 0x23473, size: 0x8, addend: 0x0, symName: __ZNSt8_Rb_treeIiSt4pairIKiSt6vectorIiSaIiEEESt10_Select1stIS5_ESt4lessIiESaIS5_EE11_M_get_nodeEv, symObjAddr: 0x38A2, symBinAddr: 0x100004092, symSize: 0x40 }
  - { offset: 0x234CE, size: 0x8, addend: 0x0, symName: __ZN9__gnu_cxx16__aligned_membufISt4pairIKiSt6vectorIiSaIiEEEE7_M_addrEv, symObjAddr: 0x3894, symBinAddr: 0x100004084, symSize: 0xE }
  - { offset: 0x234FB, size: 0x8, addend: 0x0, symName: __ZSt7forwardIRPSt18_Rb_tree_node_baseEOT_RNSt16remove_referenceIS3_E4typeE, symObjAddr: 0x3886, symBinAddr: 0x100004076, symSize: 0xE }
  - { offset: 0x23579, size: 0x8, addend: 0x0, symName: __ZNSt4pairIPSt18_Rb_tree_node_baseS1_EC1IRPSt13_Rb_tree_nodeIS_IKiiEERS1_Lb1EEEOT_OT0_, symObjAddr: 0x3842, symBinAddr: 0x100004032, symSize: 0x44 }
  - { offset: 0x235C3, size: 0x8, addend: 0x0, symName: __ZNSt8_Rb_treeIiSt4pairIKiiESt10_Select1stIS2_ESt4lessIiESaIS2_EE5beginEv, symObjAddr: 0x3818, symBinAddr: 0x100004008, symSize: 0x2A }
  - { offset: 0x235ED, size: 0x8, addend: 0x0, symName: __ZNSt8_Rb_treeIiSt4pairIKiiESt10_Select1stIS2_ESt4lessIiESaIS2_EE17_M_construct_nodeIJRKSt21piecewise_construct_tSt5tupleIJRS1_EESD_IJEEEEEvPSt13_Rb_tree_nodeIS2_EDpOT_, symObjAddr: 0x365C, symBinAddr: 0x100003E4C, symSize: 0x1BC }
  - { offset: 0x236F4, size: 0x8, addend: 0x0, symName: __ZNSt8_Rb_treeIiSt4pairIKiiESt10_Select1stIS2_ESt4lessIiESaIS2_EE11_M_get_nodeEv, symObjAddr: 0x361C, symBinAddr: 0x100003E0C, symSize: 0x40 }
  - { offset: 0x2374F, size: 0x8, addend: 0x0, symName: __ZN9__gnu_cxx16__aligned_membufISt4pairIKiiEE7_M_addrEv, symObjAddr: 0x360E, symBinAddr: 0x100003DFE, symSize: 0xE }
  - { offset: 0x23779, size: 0x8, addend: 0x0, symName: __ZNKSt10_Select1stISt4pairIKiiEEclERKS2_, symObjAddr: 0x35FC, symBinAddr: 0x100003DEC, symSize: 0x12 }
  - { offset: 0x237B4, size: 0x8, addend: 0x0, symName: __ZNKSt13_Rb_tree_nodeISt4pairIKiiEE9_M_valptrEv, symObjAddr: 0x35DE, symBinAddr: 0x100003DCE, symSize: 0x1E }
  - { offset: 0x237DA, size: 0x8, addend: 0x0, symName: __ZSt12__relocate_aIPiS0_SaIiEET0_T_S3_S2_RT1_, symObjAddr: 0x357B, symBinAddr: 0x100003D6B, symSize: 0x63 }
  - { offset: 0x23856, size: 0x8, addend: 0x0, symName: __ZNSt15__new_allocatorIiE10deallocateEPim, symObjAddr: 0x354A, symBinAddr: 0x100003D3A, symSize: 0x31 }
  - { offset: 0x238C4, size: 0x8, addend: 0x0, symName: __ZNKSt6vectorIiSaIiEE4sizeEv, symObjAddr: 0x3526, symBinAddr: 0x100003D16, symSize: 0x24 }
  - { offset: 0x238EE, size: 0x8, addend: 0x0, symName: __ZNKSt6vectorIiSaIiEE8max_sizeEv, symObjAddr: 0x3504, symBinAddr: 0x100003CF4, symSize: 0x22 }
  - { offset: 0x23953, size: 0x8, addend: 0x0, symName: __ZNSt15__new_allocatorIPiE10deallocateEPS0_m, symObjAddr: 0x34D2, symBinAddr: 0x100003CC2, symSize: 0x32 }
  - { offset: 0x239C1, size: 0x8, addend: 0x0, symName: __ZNSt15__new_allocatorIPiED2Ev, symObjAddr: 0x34C6, symBinAddr: 0x100003CB6, symSize: 0xC }
  - { offset: 0x23A0B, size: 0x8, addend: 0x0, symName: __ZNKSt11_Deque_baseIiSaIiEE19_M_get_Tp_allocatorEv, symObjAddr: 0x34B8, symBinAddr: 0x100003CA8, symSize: 0xE }
  - { offset: 0x23A31, size: 0x8, addend: 0x0, symName: __ZNSt15_Deque_iteratorIiRiPiE14_S_buffer_sizeEv, symObjAddr: 0x34A7, symBinAddr: 0x100003C97, symSize: 0x11 }
  - { offset: 0x23A4D, size: 0x8, addend: 0x0, symName: __ZNSt11_Deque_baseIiSaIiEE16_M_allocate_nodeEv, symObjAddr: 0x346A, symBinAddr: 0x100003C5A, symSize: 0x3D }
  - { offset: 0x23AE2, size: 0x8, addend: 0x0, symName: __ZNSt15_Deque_iteratorIiRiPiEC1Ev, symObjAddr: 0x3430, symBinAddr: 0x100003C20, symSize: 0x3A }
  - { offset: 0x23B1E, size: 0x8, addend: 0x0, symName: __ZNSt8_Rb_treeIiSt4pairIKiiESt10_Select1stIS2_ESt4lessIiESaIS2_EE11_M_put_nodeEPSt13_Rb_tree_nodeIS2_E, symObjAddr: 0x33E4, symBinAddr: 0x100003BD4, symSize: 0x4C }
  - { offset: 0x23B8F, size: 0x8, addend: 0x0, symName: __ZNSt8_Rb_treeIiSt4pairIKiiESt10_Select1stIS2_ESt4lessIiESaIS2_EE15_M_destroy_nodeEPSt13_Rb_tree_nodeIS2_E, symObjAddr: 0x3396, symBinAddr: 0x100003B86, symSize: 0x4E }
  - { offset: 0x23C26, size: 0x8, addend: 0x0, symName: __ZNSt8_Rb_treeIiSt4pairIKiSt6vectorIiSaIiEEESt10_Select1stIS5_ESt4lessIiESaIS5_EE11_M_put_nodeEPSt13_Rb_tree_nodeIS5_E, symObjAddr: 0x334A, symBinAddr: 0x100003B3A, symSize: 0x4C }
  - { offset: 0x23C97, size: 0x8, addend: 0x0, symName: __ZNSt8_Rb_treeIiSt4pairIKiSt6vectorIiSaIiEEESt10_Select1stIS5_ESt4lessIiESaIS5_EE15_M_destroy_nodeEPSt13_Rb_tree_nodeIS5_E, symObjAddr: 0x32F0, symBinAddr: 0x100003AE0, symSize: 0x5A }
  - { offset: 0x23D2E, size: 0x8, addend: 0x0, symName: __ZNSt8_Rb_treeIiSt4pairIKiSt6vectorIiSaIiEEESt10_Select1stIS5_ESt4lessIiESaIS5_EE14_M_insert_nodeEPSt18_Rb_tree_node_baseSD_PSt13_Rb_tree_nodeIS5_E, symObjAddr: 0x322C, symBinAddr: 0x100003A1C, symSize: 0xC4 }
  - { offset: 0x23D9A, size: 0x8, addend: 0x0, symName: __ZNSt8_Rb_treeIiSt4pairIKiSt6vectorIiSaIiEEESt10_Select1stIS5_ESt4lessIiESaIS5_EE6_S_keyEPKSt13_Rb_tree_nodeIS5_E, symObjAddr: 0x3200, symBinAddr: 0x1000039F0, symSize: 0x2C }
  - { offset: 0x23DC8, size: 0x8, addend: 0x0, symName: __ZNSt17_Rb_tree_iteratorISt4pairIKiSt6vectorIiSaIiEEEEppEv, symObjAddr: 0x31D8, symBinAddr: 0x1000039C8, symSize: 0x28 }
  - { offset: 0x23DF2, size: 0x8, addend: 0x0, symName: __ZNSt17_Rb_tree_iteratorISt4pairIKiSt6vectorIiSaIiEEEEmmEv, symObjAddr: 0x31B0, symBinAddr: 0x1000039A0, symSize: 0x28 }
  - { offset: 0x23E1C, size: 0x8, addend: 0x0, symName: __ZNSt8_Rb_treeIiSt4pairIKiSt6vectorIiSaIiEEESt10_Select1stIS5_ESt4lessIiESaIS5_EE11_M_leftmostEv, symObjAddr: 0x319E, symBinAddr: 0x10000398E, symSize: 0x12 }
  - { offset: 0x23E46, size: 0x8, addend: 0x0, symName: __ZNSt8_Rb_treeIiSt4pairIKiSt6vectorIiSaIiEEESt10_Select1stIS5_ESt4lessIiESaIS5_EE24_M_get_insert_unique_posERS1_, symObjAddr: 0x3028, symBinAddr: 0x100003818, symSize: 0x176 }
  - { offset: 0x23EC6, size: 0x8, addend: 0x0, symName: __ZNSt8_Rb_treeIiSt4pairIKiSt6vectorIiSaIiEEESt10_Select1stIS5_ESt4lessIiESaIS5_EE6_S_keyEPKSt18_Rb_tree_node_base, symObjAddr: 0x300E, symBinAddr: 0x1000037FE, symSize: 0x1A }
  - { offset: 0x23EF4, size: 0x8, addend: 0x0, symName: __ZNSt8_Rb_treeIiSt4pairIKiSt6vectorIiSaIiEEESt10_Select1stIS5_ESt4lessIiESaIS5_EE12_M_rightmostEv, symObjAddr: 0x2FFC, symBinAddr: 0x1000037EC, symSize: 0x12 }
  - { offset: 0x23F1E, size: 0x8, addend: 0x0, symName: __ZNKSt8_Rb_treeIiSt4pairIKiSt6vectorIiSaIiEEESt10_Select1stIS5_ESt4lessIiESaIS5_EE4sizeEv, symObjAddr: 0x2FEA, symBinAddr: 0x1000037DA, symSize: 0x12 }
  - { offset: 0x23F48, size: 0x8, addend: 0x0, symName: __ZNKSt23_Rb_tree_const_iteratorISt4pairIKiSt6vectorIiSaIiEEEE13_M_const_castEv, symObjAddr: 0x2FC2, symBinAddr: 0x1000037B2, symSize: 0x28 }
  - { offset: 0x23F72, size: 0x8, addend: 0x0, symName: __ZNSt8_Rb_treeIiSt4pairIKiSt6vectorIiSaIiEEESt10_Select1stIS5_ESt4lessIiESaIS5_EE14_M_create_nodeIJRKSt21piecewise_construct_tSt5tupleIJRS1_EESG_IJEEEEEPSt13_Rb_tree_nodeIS5_EDpOT_, symObjAddr: 0x2F46, symBinAddr: 0x100003736, symSize: 0x7C }
  - { offset: 0x23FE6, size: 0x8, addend: 0x0, symName: __ZN9__gnu_cxx16__aligned_membufISt4pairIKiSt6vectorIiSaIiEEEE6_M_ptrEv, symObjAddr: 0x2F2C, symBinAddr: 0x10000371C, symSize: 0x1A }
  - { offset: 0x24010, size: 0x8, addend: 0x0, symName: __ZNSt8_Rb_treeIiSt4pairIKiSt6vectorIiSaIiEEESt10_Select1stIS5_ESt4lessIiESaIS5_EE14_M_lower_boundEPSt13_Rb_tree_nodeIS5_EPSt18_Rb_tree_node_baseRS1_, symObjAddr: 0x2E96, symBinAddr: 0x100003686, symSize: 0x96 }
  - { offset: 0x2406F, size: 0x8, addend: 0x0, symName: __ZNSt8_Rb_treeIiSt4pairIKiSt6vectorIiSaIiEEESt10_Select1stIS5_ESt4lessIiESaIS5_EE6_M_endEv, symObjAddr: 0x2E84, symBinAddr: 0x100003674, symSize: 0x12 }
  - { offset: 0x24099, size: 0x8, addend: 0x0, symName: __ZNSt8_Rb_treeIiSt4pairIKiiESt10_Select1stIS2_ESt4lessIiESaIS2_EE14_M_insert_nodeEPSt18_Rb_tree_node_baseSA_PSt13_Rb_tree_nodeIS2_E, symObjAddr: 0x2DC0, symBinAddr: 0x1000035B0, symSize: 0xC4 }
  - { offset: 0x24109, size: 0x8, addend: 0x0, symName: __ZNSt17_Rb_tree_iteratorISt4pairIKiiEEppEv, symObjAddr: 0x2D98, symBinAddr: 0x100003588, symSize: 0x28 }
  - { offset: 0x24133, size: 0x8, addend: 0x0, symName: __ZNSt17_Rb_tree_iteratorISt4pairIKiiEEmmEv, symObjAddr: 0x2D70, symBinAddr: 0x100003560, symSize: 0x28 }
  - { offset: 0x241A5, size: 0x8, addend: 0x0, symName: __ZNSt4pairIPSt18_Rb_tree_node_baseS1_EC1IRS1_S4_Lb1EEEOT_OT0_, symObjAddr: 0x2D2C, symBinAddr: 0x10000351C, symSize: 0x44 }
  - { offset: 0x241EF, size: 0x8, addend: 0x0, symName: __ZNSt8_Rb_treeIiSt4pairIKiiESt10_Select1stIS2_ESt4lessIiESaIS2_EE11_M_leftmostEv, symObjAddr: 0x2D1A, symBinAddr: 0x10000350A, symSize: 0x12 }
  - { offset: 0x24219, size: 0x8, addend: 0x0, symName: __ZNSt8_Rb_treeIiSt4pairIKiiESt10_Select1stIS2_ESt4lessIiESaIS2_EE24_M_get_insert_unique_posERS1_, symObjAddr: 0x2BA4, symBinAddr: 0x100003394, symSize: 0x176 }
  - { offset: 0x242E5, size: 0x8, addend: 0x0, symName: __ZNSt4pairIPSt18_Rb_tree_node_baseS1_EC1IS1_S1_Lb1EEERKS1_S5_, symObjAddr: 0x2B74, symBinAddr: 0x100003364, symSize: 0x30 }
  - { offset: 0x2432F, size: 0x8, addend: 0x0, symName: __ZNSt8_Rb_treeIiSt4pairIKiiESt10_Select1stIS2_ESt4lessIiESaIS2_EE12_M_rightmostEv, symObjAddr: 0x2B62, symBinAddr: 0x100003352, symSize: 0x12 }
  - { offset: 0x24359, size: 0x8, addend: 0x0, symName: __ZNKSt8_Rb_treeIiSt4pairIKiiESt10_Select1stIS2_ESt4lessIiESaIS2_EE4sizeEv, symObjAddr: 0x2B50, symBinAddr: 0x100003340, symSize: 0x12 }
  - { offset: 0x24383, size: 0x8, addend: 0x0, symName: __ZNKSt23_Rb_tree_const_iteratorISt4pairIKiiEE13_M_const_castEv, symObjAddr: 0x2B28, symBinAddr: 0x100003318, symSize: 0x28 }
  - { offset: 0x243AD, size: 0x8, addend: 0x0, symName: __ZNSt8_Rb_treeIiSt4pairIKiiESt10_Select1stIS2_ESt4lessIiESaIS2_EE14_M_create_nodeIJRKSt21piecewise_construct_tSt5tupleIJRS1_EESD_IJEEEEEPSt13_Rb_tree_nodeIS2_EDpOT_, symObjAddr: 0x2AAC, symBinAddr: 0x10000329C, symSize: 0x7C }
  - { offset: 0x24448, size: 0x8, addend: 0x0, symName: __ZNSt10_Head_baseILm0ERKiLb0EEC2ES1_, symObjAddr: 0x2A92, symBinAddr: 0x100003282, symSize: 0x1A }
  - { offset: 0x24477, size: 0x8, addend: 0x0, symName: __ZN9__gnu_cxx16__aligned_membufISt4pairIKiiEE6_M_ptrEv, symObjAddr: 0x2A78, symBinAddr: 0x100003268, symSize: 0x1A }
  - { offset: 0x244A1, size: 0x8, addend: 0x0, symName: __ZNSt8_Rb_treeIiSt4pairIKiiESt10_Select1stIS2_ESt4lessIiESaIS2_EE14_M_lower_boundEPSt13_Rb_tree_nodeIS2_EPSt18_Rb_tree_node_baseRS1_, symObjAddr: 0x29E2, symBinAddr: 0x1000031D2, symSize: 0x96 }
  - { offset: 0x24500, size: 0x8, addend: 0x0, symName: __ZNSt8_Rb_treeIiSt4pairIKiiESt10_Select1stIS2_ESt4lessIiESaIS2_EE6_M_endEv, symObjAddr: 0x29D0, symBinAddr: 0x1000031C0, symSize: 0x12 }
  - { offset: 0x24526, size: 0x8, addend: 0x0, symName: __ZNSt8_Rb_treeIiSt4pairIKiiESt10_Select1stIS2_ESt4lessIiESaIS2_EE8_S_rightEPKSt18_Rb_tree_node_base, symObjAddr: 0x29BE, symBinAddr: 0x1000031AE, symSize: 0x12 }
  - { offset: 0x24550, size: 0x8, addend: 0x0, symName: __ZNSt8_Rb_treeIiSt4pairIKiiESt10_Select1stIS2_ESt4lessIiESaIS2_EE7_S_leftEPKSt18_Rb_tree_node_base, symObjAddr: 0x29AC, symBinAddr: 0x10000319C, symSize: 0x12 }
  - { offset: 0x2457A, size: 0x8, addend: 0x0, symName: __ZNSt8_Rb_treeIiSt4pairIKiiESt10_Select1stIS2_ESt4lessIiESaIS2_EE6_S_keyEPKSt13_Rb_tree_nodeIS2_E, symObjAddr: 0x2980, symBinAddr: 0x100003170, symSize: 0x2C }
  - { offset: 0x245A8, size: 0x8, addend: 0x0, symName: __ZNSt12_Vector_baseIiSaIiEE19_M_get_Tp_allocatorEv, symObjAddr: 0x2972, symBinAddr: 0x100003162, symSize: 0xE }
  - { offset: 0x245CE, size: 0x8, addend: 0x0, symName: __ZNSt6vectorIiSaIiEE11_S_relocateEPiS2_S2_RS0_, symObjAddr: 0x293F, symBinAddr: 0x10000312F, symSize: 0x33 }
  - { offset: 0x2462B, size: 0x8, addend: 0x0, symName: __ZSt12__to_addressIiEPT_S1_, symObjAddr: 0x2931, symBinAddr: 0x100003121, symSize: 0xE }
  - { offset: 0x24693, size: 0x8, addend: 0x0, symName: __ZNSt12_Vector_baseIiSaIiEE11_M_allocateEm, symObjAddr: 0x28E8, symBinAddr: 0x1000030D8, symSize: 0x49 }
  - { offset: 0x246FE, size: 0x8, addend: 0x0, symName: __ZN9__gnu_cxxmiIPiSt6vectorIiSaIiEEEENS_17__normal_iteratorIT_T0_E15difference_typeERKS8_SB_, symObjAddr: 0x28A6, symBinAddr: 0x100003096, symSize: 0x42 }
  - { offset: 0x2474F, size: 0x8, addend: 0x0, symName: __ZNKSt6vectorIiSaIiEE12_M_check_lenEmPKc, symObjAddr: 0x27DE, symBinAddr: 0x100002FCE, symSize: 0xC8 }
  - { offset: 0x247F2, size: 0x8, addend: 0x0, symName: __ZSt7forwardIRKiEOT_RNSt16remove_referenceIS2_E4typeE, symObjAddr: 0x27CF, symBinAddr: 0x100002FBF, symSize: 0xF }
  - { offset: 0x2484F, size: 0x8, addend: 0x0, symName: __ZNSt15_Deque_iteratorIiRiPiEC1ERKS2_, symObjAddr: 0x2782, symBinAddr: 0x100002F72, symSize: 0x4D }
  - { offset: 0x248D0, size: 0x8, addend: 0x0, symName: __ZNKSt11_Deque_baseIiSaIiEE20_M_get_map_allocatorEv, symObjAddr: 0x2748, symBinAddr: 0x100002F38, symSize: 0x3A }
  - { offset: 0x2494A, size: 0x8, addend: 0x0, symName: __ZNSt11_Deque_baseIiSaIiEE18_M_deallocate_nodeEPi, symObjAddr: 0x26FE, symBinAddr: 0x100002EEE, symSize: 0x4A }
  - { offset: 0x249BB, size: 0x8, addend: 0x0, symName: __ZNSt15_Deque_iteratorIiRiPiE11_M_set_nodeEPS1_, symObjAddr: 0x26AE, symBinAddr: 0x100002E9E, symSize: 0x50 }
  - { offset: 0x249F6, size: 0x8, addend: 0x0, symName: __ZNSt11_Deque_baseIiSaIiEE15_M_create_nodesEPPiS3_, symObjAddr: 0x262E, symBinAddr: 0x100002E1E, symSize: 0x80 }
  - { offset: 0x24A54, size: 0x8, addend: 0x0, symName: __ZNSt11_Deque_baseIiSaIiEE15_M_allocate_mapEm, symObjAddr: 0x25B2, symBinAddr: 0x100002DA2, symSize: 0x7C }
  - { offset: 0x24B30, size: 0x8, addend: 0x0, symName: __ZNSt15__new_allocatorIiED2Ev, symObjAddr: 0x25A6, symBinAddr: 0x100002D96, symSize: 0xC }
  - { offset: 0x24B70, size: 0x8, addend: 0x0, symName: __ZNSt11_Deque_baseIiSaIiEE16_Deque_impl_dataC2Ev, symObjAddr: 0x2560, symBinAddr: 0x100002D50, symSize: 0x46 }
  - { offset: 0x24BAC, size: 0x8, addend: 0x0, symName: __ZNKSt8_Rb_treeIiSt4pairIKiiESt10_Select1stIS2_ESt4lessIiESaIS2_EE9_M_mbeginEv, symObjAddr: 0x254E, symBinAddr: 0x100002D3E, symSize: 0x12 }
  - { offset: 0x24BD6, size: 0x8, addend: 0x0, symName: __ZNSt8_Rb_treeIiSt4pairIKiiESt10_Select1stIS2_ESt4lessIiESaIS2_EE12_M_drop_nodeEPSt13_Rb_tree_nodeIS2_E, symObjAddr: 0x2514, symBinAddr: 0x100002D04, symSize: 0x3A }
  - { offset: 0x24C0D, size: 0x8, addend: 0x0, symName: __ZNSt8_Rb_treeIiSt4pairIKiiESt10_Select1stIS2_ESt4lessIiESaIS2_EE7_S_leftEPSt18_Rb_tree_node_base, symObjAddr: 0x2502, symBinAddr: 0x100002CF2, symSize: 0x12 }
  - { offset: 0x24C37, size: 0x8, addend: 0x0, symName: __ZNSt8_Rb_treeIiSt4pairIKiiESt10_Select1stIS2_ESt4lessIiESaIS2_EE8_S_rightEPSt18_Rb_tree_node_base, symObjAddr: 0x24F0, symBinAddr: 0x100002CE0, symSize: 0x12 }
  - { offset: 0x24C7B, size: 0x8, addend: 0x0, symName: __ZNKSt8_Rb_treeIiSt4pairIKiSt6vectorIiSaIiEEESt10_Select1stIS5_ESt4lessIiESaIS5_EE9_M_mbeginEv, symObjAddr: 0x24DE, symBinAddr: 0x100002CCE, symSize: 0x12 }
  - { offset: 0x24CA5, size: 0x8, addend: 0x0, symName: __ZNSt8_Rb_treeIiSt4pairIKiSt6vectorIiSaIiEEESt10_Select1stIS5_ESt4lessIiESaIS5_EE12_M_drop_nodeEPSt13_Rb_tree_nodeIS5_E, symObjAddr: 0x24A4, symBinAddr: 0x100002C94, symSize: 0x3A }
  - { offset: 0x24CDC, size: 0x8, addend: 0x0, symName: __ZNSt8_Rb_treeIiSt4pairIKiSt6vectorIiSaIiEEESt10_Select1stIS5_ESt4lessIiESaIS5_EE7_S_leftEPSt18_Rb_tree_node_base, symObjAddr: 0x2492, symBinAddr: 0x100002C82, symSize: 0x12 }
  - { offset: 0x24D06, size: 0x8, addend: 0x0, symName: __ZNSt8_Rb_treeIiSt4pairIKiSt6vectorIiSaIiEEESt10_Select1stIS5_ESt4lessIiESaIS5_EE8_S_rightEPSt18_Rb_tree_node_base, symObjAddr: 0x2480, symBinAddr: 0x100002C70, symSize: 0x12 }
  - { offset: 0x24D72, size: 0x8, addend: 0x0, symName: __ZNSt17_Rb_tree_iteratorISt4pairIKiSt6vectorIiSaIiEEEEC1EPSt18_Rb_tree_node_base, symObjAddr: 0x2466, symBinAddr: 0x100002C56, symSize: 0x1A }
  - { offset: 0x24DA1, size: 0x8, addend: 0x0, symName: __ZNSt8_Rb_treeIiSt4pairIKiSt6vectorIiSaIiEEESt10_Select1stIS5_ESt4lessIiESaIS5_EE10_Auto_node9_M_insertES0_IPSt18_Rb_tree_node_baseSE_E, symObjAddr: 0x240C, symBinAddr: 0x100002BFC, symSize: 0x5A }
  - { offset: 0x24DED, size: 0x8, addend: 0x0, symName: __ZNKSt8_Rb_treeIiSt4pairIKiSt6vectorIiSaIiEEESt10_Select1stIS5_ESt4lessIiESaIS5_EE10_Auto_node6_M_keyEv, symObjAddr: 0x23EE, symBinAddr: 0x100002BDE, symSize: 0x1E }
  - { offset: 0x24E17, size: 0x8, addend: 0x0, symName: __ZNSt8_Rb_treeIiSt4pairIKiSt6vectorIiSaIiEEESt10_Select1stIS5_ESt4lessIiESaIS5_EE29_M_get_insert_hint_unique_posESt23_Rb_tree_const_iteratorIS5_ERS1_, symObjAddr: 0x1FA0, symBinAddr: 0x100002790, symSize: 0x44E }
  - { offset: 0x24EE6, size: 0x8, addend: 0x0, symName: __ZNSt8_Rb_treeIiSt4pairIKiSt6vectorIiSaIiEEESt10_Select1stIS5_ESt4lessIiESaIS5_EE10_Auto_nodeD1Ev, symObjAddr: 0x1F6A, symBinAddr: 0x10000275A, symSize: 0x36 }
  - { offset: 0x24F5F, size: 0x8, addend: 0x0, symName: __ZNSt8_Rb_treeIiSt4pairIKiSt6vectorIiSaIiEEESt10_Select1stIS5_ESt4lessIiESaIS5_EE10_Auto_nodeC1IJRKSt21piecewise_construct_tSt5tupleIJRS1_EESH_IJEEEEERSB_DpOT_, symObjAddr: 0x1EEE, symBinAddr: 0x1000026DE, symSize: 0x7C }
  - { offset: 0x24FC6, size: 0x8, addend: 0x0, symName: __ZNSt13_Rb_tree_nodeISt4pairIKiSt6vectorIiSaIiEEEE9_M_valptrEv, symObjAddr: 0x1ED0, symBinAddr: 0x1000026C0, symSize: 0x1E }
  - { offset: 0x24FF0, size: 0x8, addend: 0x0, symName: __ZNKSt8_Rb_treeIiSt4pairIKiSt6vectorIiSaIiEEESt10_Select1stIS5_ESt4lessIiESaIS5_EE8key_compEv, symObjAddr: 0x1EC4, symBinAddr: 0x1000026B4, symSize: 0xC }
  - { offset: 0x2501A, size: 0x8, addend: 0x0, symName: __ZNSt8_Rb_treeIiSt4pairIKiSt6vectorIiSaIiEEESt10_Select1stIS5_ESt4lessIiESaIS5_EE3endEv, symObjAddr: 0x1E9A, symBinAddr: 0x10000268A, symSize: 0x2A }
  - { offset: 0x25044, size: 0x8, addend: 0x0, symName: __ZNSt8_Rb_treeIiSt4pairIKiSt6vectorIiSaIiEEESt10_Select1stIS5_ESt4lessIiESaIS5_EE11lower_boundERS1_, symObjAddr: 0x1E4E, symBinAddr: 0x10000263E, symSize: 0x4C }
  - { offset: 0x250A7, size: 0x8, addend: 0x0, symName: __ZNSt17_Rb_tree_iteratorISt4pairIKiiEEC1EPSt18_Rb_tree_node_base, symObjAddr: 0x1E34, symBinAddr: 0x100002624, symSize: 0x1A }
  - { offset: 0x250D6, size: 0x8, addend: 0x0, symName: __ZNSt8_Rb_treeIiSt4pairIKiiESt10_Select1stIS2_ESt4lessIiESaIS2_EE10_Auto_node9_M_insertES0_IPSt18_Rb_tree_node_baseSB_E, symObjAddr: 0x1DDA, symBinAddr: 0x1000025CA, symSize: 0x5A }
  - { offset: 0x25122, size: 0x8, addend: 0x0, symName: __ZNKSt8_Rb_treeIiSt4pairIKiiESt10_Select1stIS2_ESt4lessIiESaIS2_EE10_Auto_node6_M_keyEv, symObjAddr: 0x1DBC, symBinAddr: 0x1000025AC, symSize: 0x1E }
  - { offset: 0x2514C, size: 0x8, addend: 0x0, symName: __ZNSt8_Rb_treeIiSt4pairIKiiESt10_Select1stIS2_ESt4lessIiESaIS2_EE29_M_get_insert_hint_unique_posESt23_Rb_tree_const_iteratorIS2_ERS1_, symObjAddr: 0x196E, symBinAddr: 0x10000215E, symSize: 0x44E }
  - { offset: 0x2521B, size: 0x8, addend: 0x0, symName: __ZNSt8_Rb_treeIiSt4pairIKiiESt10_Select1stIS2_ESt4lessIiESaIS2_EE10_Auto_nodeD1Ev, symObjAddr: 0x1938, symBinAddr: 0x100002128, symSize: 0x36 }
  - { offset: 0x25294, size: 0x8, addend: 0x0, symName: __ZNSt8_Rb_treeIiSt4pairIKiiESt10_Select1stIS2_ESt4lessIiESaIS2_EE10_Auto_nodeC1IJRKSt21piecewise_construct_tSt5tupleIJRS1_EESE_IJEEEEERS8_DpOT_, symObjAddr: 0x18BC, symBinAddr: 0x1000020AC, symSize: 0x7C }
  - { offset: 0x252FE, size: 0x8, addend: 0x0, symName: __ZSt7forwardISt5tupleIJEEEOT_RNSt16remove_referenceIS2_E4typeE, symObjAddr: 0x18AE, symBinAddr: 0x10000209E, symSize: 0xE }
  - { offset: 0x25337, size: 0x8, addend: 0x0, symName: __ZSt7forwardISt5tupleIJRKiEEEOT_RNSt16remove_referenceIS4_E4typeE, symObjAddr: 0x18A0, symBinAddr: 0x100002090, symSize: 0xE }
  - { offset: 0x25370, size: 0x8, addend: 0x0, symName: __ZSt7forwardIRKSt21piecewise_construct_tEOT_RNSt16remove_referenceIS3_E4typeE, symObjAddr: 0x1892, symBinAddr: 0x100002082, symSize: 0xE }
  - { offset: 0x253CE, size: 0x8, addend: 0x0, symName: __ZNSt11_Tuple_implILm0EJRKiEEC2ES1_, symObjAddr: 0x186C, symBinAddr: 0x10000205C, symSize: 0x26 }
  - { offset: 0x253FD, size: 0x8, addend: 0x0, symName: __ZNSt13_Rb_tree_nodeISt4pairIKiiEE9_M_valptrEv, symObjAddr: 0x184E, symBinAddr: 0x10000203E, symSize: 0x1E }
  - { offset: 0x25427, size: 0x8, addend: 0x0, symName: __ZNKSt8_Rb_treeIiSt4pairIKiiESt10_Select1stIS2_ESt4lessIiESaIS2_EE8key_compEv, symObjAddr: 0x1842, symBinAddr: 0x100002032, symSize: 0xC }
  - { offset: 0x25451, size: 0x8, addend: 0x0, symName: __ZNSt8_Rb_treeIiSt4pairIKiiESt10_Select1stIS2_ESt4lessIiESaIS2_EE3endEv, symObjAddr: 0x1818, symBinAddr: 0x100002008, symSize: 0x2A }
  - { offset: 0x2547B, size: 0x8, addend: 0x0, symName: __ZNSt8_Rb_treeIiSt4pairIKiiESt10_Select1stIS2_ESt4lessIiESaIS2_EE11lower_boundERS1_, symObjAddr: 0x17CC, symBinAddr: 0x100001FBC, symSize: 0x4C }
  - { offset: 0x254DE, size: 0x8, addend: 0x0, symName: __ZNSt23_Rb_tree_const_iteratorISt4pairIKiiEEC1EPKSt18_Rb_tree_node_base, symObjAddr: 0x17B2, symBinAddr: 0x100001FA2, symSize: 0x1A }
  - { offset: 0x25509, size: 0x8, addend: 0x0, symName: __ZNSt8_Rb_treeIiSt4pairIKiiESt10_Select1stIS2_ESt4lessIiESaIS2_EE6_S_keyEPKSt18_Rb_tree_node_base, symObjAddr: 0x1797, symBinAddr: 0x100001F87, symSize: 0x1B }
  - { offset: 0x25537, size: 0x8, addend: 0x0, symName: __ZNKSt8_Rb_treeIiSt4pairIKiiESt10_Select1stIS2_ESt4lessIiESaIS2_EE14_M_lower_boundEPKSt13_Rb_tree_nodeIS2_EPKSt18_Rb_tree_node_baseRS1_, symObjAddr: 0x1702, symBinAddr: 0x100001EF2, symSize: 0x95 }
  - { offset: 0x25596, size: 0x8, addend: 0x0, symName: __ZNKSt8_Rb_treeIiSt4pairIKiiESt10_Select1stIS2_ESt4lessIiESaIS2_EE6_M_endEv, symObjAddr: 0x16F0, symBinAddr: 0x100001EE0, symSize: 0x12 }
  - { offset: 0x255C0, size: 0x8, addend: 0x0, symName: __ZNKSt8_Rb_treeIiSt4pairIKiiESt10_Select1stIS2_ESt4lessIiESaIS2_EE8_M_beginEv, symObjAddr: 0x16DE, symBinAddr: 0x100001ECE, symSize: 0x12 }
  - { offset: 0x255EA, size: 0x8, addend: 0x0, symName: __ZNSt6vectorIiSaIiEE17_M_realloc_appendIJRKiEEEvDpOT_, symObjAddr: 0x14D6, symBinAddr: 0x100001CC6, symSize: 0x208 }
  - { offset: 0x25771, size: 0x8, addend: 0x0, symName: __ZZNSt6vectorIiSaIiEE17_M_realloc_appendIJRKiEEEvDpOT_EN6_GuardC1EPimRS0_, symObjAddr: 0x1446, symBinAddr: 0x100001C36, symSize: 0x3A }
  - { offset: 0x257B6, size: 0x8, addend: 0x0, symName: __ZZNSt6vectorIiSaIiEE17_M_realloc_appendIJRKiEEEvDpOT_EN6_GuardD1Ev, symObjAddr: 0x1480, symBinAddr: 0x100001C70, symSize: 0x56 }
  - { offset: 0x258EF, size: 0x8, addend: 0x0, symName: __ZNSt5dequeIiSaIiEE15_M_destroy_dataESt15_Deque_iteratorIiRiPiES5_RKS0_, symObjAddr: 0x142E, symBinAddr: 0x100001C1E, symSize: 0x18 }
  - { offset: 0x2594A, size: 0x8, addend: 0x0, symName: __ZNSt11_Deque_baseIiSaIiEE19_M_get_Tp_allocatorEv, symObjAddr: 0x1420, symBinAddr: 0x100001C10, symSize: 0xE }
  - { offset: 0x25974, size: 0x8, addend: 0x0, symName: __ZNSt5dequeIiSaIiEE3endEv, symObjAddr: 0x13F2, symBinAddr: 0x100001BE2, symSize: 0x2E }
  - { offset: 0x2599E, size: 0x8, addend: 0x0, symName: __ZNSt5dequeIiSaIiEE5beginEv, symObjAddr: 0x13C4, symBinAddr: 0x100001BB4, symSize: 0x2E }
  - { offset: 0x259C8, size: 0x8, addend: 0x0, symName: __ZNSt11_Deque_baseIiSaIiEE17_M_deallocate_mapEPPim, symObjAddr: 0x1364, symBinAddr: 0x100001B54, symSize: 0x60 }
  - { offset: 0x25A7A, size: 0x8, addend: 0x0, symName: __ZNSt11_Deque_baseIiSaIiEE16_M_destroy_nodesEPPiS3_, symObjAddr: 0x131C, symBinAddr: 0x100001B0C, symSize: 0x48 }
  - { offset: 0x25AEA, size: 0x8, addend: 0x0, symName: __ZNSt11_Deque_baseIiSaIiEE17_M_initialize_mapEm, symObjAddr: 0x1174, symBinAddr: 0x100001964, symSize: 0x1A8 }
  - { offset: 0x25B94, size: 0x8, addend: 0x0, symName: __ZNSt11_Deque_baseIiSaIiEE11_Deque_implC1Ev, symObjAddr: 0x1146, symBinAddr: 0x100001936, symSize: 0x2E }
  - { offset: 0x25C01, size: 0x8, addend: 0x0, symName: __ZNSt8_Rb_treeIiSt4pairIKiiESt10_Select1stIS2_ESt4lessIiESaIS2_EE8_M_beginEv, symObjAddr: 0x112C, symBinAddr: 0x10000191C, symSize: 0x1A }
  - { offset: 0x25C2B, size: 0x8, addend: 0x0, symName: __ZNSt8_Rb_treeIiSt4pairIKiiESt10_Select1stIS2_ESt4lessIiESaIS2_EE8_M_eraseEPSt13_Rb_tree_nodeIS2_E, symObjAddr: 0x10C6, symBinAddr: 0x1000018B6, symSize: 0x66 }
  - { offset: 0x25CAE, size: 0x8, addend: 0x0, symName: __ZNSt15__new_allocatorISt13_Rb_tree_nodeISt4pairIKiiEEED2Ev, symObjAddr: 0x10BA, symBinAddr: 0x1000018AA, symSize: 0xC }
  - { offset: 0x25CEA, size: 0x8, addend: 0x0, symName: __ZNSt8_Rb_treeIiSt4pairIKiSt6vectorIiSaIiEEESt10_Select1stIS5_ESt4lessIiESaIS5_EE8_M_beginEv, symObjAddr: 0x10A0, symBinAddr: 0x100001890, symSize: 0x1A }
  - { offset: 0x25D14, size: 0x8, addend: 0x0, symName: __ZNSt8_Rb_treeIiSt4pairIKiSt6vectorIiSaIiEEESt10_Select1stIS5_ESt4lessIiESaIS5_EE8_M_eraseEPSt13_Rb_tree_nodeIS5_E, symObjAddr: 0x103A, symBinAddr: 0x10000182A, symSize: 0x66 }
  - { offset: 0x25D97, size: 0x8, addend: 0x0, symName: __ZNSt15__new_allocatorISt13_Rb_tree_nodeISt4pairIKiSt6vectorIiSaIiEEEEED2Ev, symObjAddr: 0x102E, symBinAddr: 0x10000181E, symSize: 0xC }
  - { offset: 0x25DD7, size: 0x8, addend: 0x0, symName: __ZNSt20_Rb_tree_key_compareISt4lessIiEEC2Ev, symObjAddr: 0x1022, symBinAddr: 0x100001812, symSize: 0xC }
  - { offset: 0x25E13, size: 0x8, addend: 0x0, symName: __ZNK9__gnu_cxx17__normal_iteratorIPiSt6vectorIiSaIiEEE4baseEv, symObjAddr: 0x1014, symBinAddr: 0x100001804, symSize: 0xE }
  - { offset: 0x25E65, size: 0x8, addend: 0x0, symName: __ZN9__gnu_cxx17__normal_iteratorIPiSt6vectorIiSaIiEEEC1ERKS1_, symObjAddr: 0xFF6, symBinAddr: 0x1000017E6, symSize: 0x1E }
  - { offset: 0x25E94, size: 0x8, addend: 0x0, symName: __ZNSt8_Rb_treeIiSt4pairIKiSt6vectorIiSaIiEEESt10_Select1stIS5_ESt4lessIiESaIS5_EE22_M_emplace_hint_uniqueIJRKSt21piecewise_construct_tSt5tupleIJRS1_EESG_IJEEEEESt17_Rb_tree_iteratorIS5_ESt23_Rb_tree_const_iteratorIS5_EDpOT_, symObjAddr: 0xEFA, symBinAddr: 0x1000016EA, symSize: 0xFC }
  - { offset: 0x25F56, size: 0x8, addend: 0x0, symName: __ZNSt23_Rb_tree_const_iteratorISt4pairIKiSt6vectorIiSaIiEEEEC1ERKSt17_Rb_tree_iteratorIS5_E, symObjAddr: 0xEDC, symBinAddr: 0x1000016CC, symSize: 0x1E }
  - { offset: 0x25F85, size: 0x8, addend: 0x0, symName: __ZNKSt17_Rb_tree_iteratorISt4pairIKiSt6vectorIiSaIiEEEEdeEv, symObjAddr: 0xEBE, symBinAddr: 0x1000016AE, symSize: 0x1E }
  - { offset: 0x25FAF, size: 0x8, addend: 0x0, symName: __ZNKSt3mapIiSt6vectorIiSaIiEESt4lessIiESaISt4pairIKiS2_EEE8key_compEv, symObjAddr: 0xEA2, symBinAddr: 0x100001692, symSize: 0x1C }
  - { offset: 0x25FDC, size: 0x8, addend: 0x0, symName: __ZSteqRKSt17_Rb_tree_iteratorISt4pairIKiSt6vectorIiSaIiEEEES8_, symObjAddr: 0xE80, symBinAddr: 0x100001670, symSize: 0x22 }
  - { offset: 0x2601B, size: 0x8, addend: 0x0, symName: __ZNSt3mapIiSt6vectorIiSaIiEESt4lessIiESaISt4pairIKiS2_EEE3endEv, symObjAddr: 0xE66, symBinAddr: 0x100001656, symSize: 0x1A }
  - { offset: 0x26045, size: 0x8, addend: 0x0, symName: __ZNSt3mapIiSt6vectorIiSaIiEESt4lessIiESaISt4pairIKiS2_EEE11lower_boundERS6_, symObjAddr: 0xE40, symBinAddr: 0x100001630, symSize: 0x26 }
  - { offset: 0x26080, size: 0x8, addend: 0x0, symName: __ZNSt8_Rb_treeIiSt4pairIKiiESt10_Select1stIS2_ESt4lessIiESaIS2_EE22_M_emplace_hint_uniqueIJRKSt21piecewise_construct_tSt5tupleIJRS1_EESD_IJEEEEESt17_Rb_tree_iteratorIS2_ESt23_Rb_tree_const_iteratorIS2_EDpOT_, symObjAddr: 0xD44, symBinAddr: 0x100001534, symSize: 0xFC }
  - { offset: 0x26142, size: 0x8, addend: 0x0, symName: __ZNSt23_Rb_tree_const_iteratorISt4pairIKiiEEC1ERKSt17_Rb_tree_iteratorIS2_E, symObjAddr: 0xD26, symBinAddr: 0x100001516, symSize: 0x1E }
  - { offset: 0x261A3, size: 0x8, addend: 0x0, symName: __ZNSt5tupleIJRKiEEC1ILb1ELb1EEES1_, symObjAddr: 0xD00, symBinAddr: 0x1000014F0, symSize: 0x26 }
  - { offset: 0x261DC, size: 0x8, addend: 0x0, symName: __ZNKSt4lessIiEclERKiS2_, symObjAddr: 0xCDC, symBinAddr: 0x1000014CC, symSize: 0x24 }
  - { offset: 0x26228, size: 0x8, addend: 0x0, symName: __ZNKSt17_Rb_tree_iteratorISt4pairIKiiEEdeEv, symObjAddr: 0xCBE, symBinAddr: 0x1000014AE, symSize: 0x1E }
  - { offset: 0x26252, size: 0x8, addend: 0x0, symName: __ZNKSt3mapIiiSt4lessIiESaISt4pairIKiiEEE8key_compEv, symObjAddr: 0xCA2, symBinAddr: 0x100001492, symSize: 0x1C }
  - { offset: 0x2627F, size: 0x8, addend: 0x0, symName: __ZSteqRKSt17_Rb_tree_iteratorISt4pairIKiiEES5_, symObjAddr: 0xC80, symBinAddr: 0x100001470, symSize: 0x22 }
  - { offset: 0x262BE, size: 0x8, addend: 0x0, symName: __ZNSt3mapIiiSt4lessIiESaISt4pairIKiiEEE3endEv, symObjAddr: 0xC66, symBinAddr: 0x100001456, symSize: 0x1A }
  - { offset: 0x262E8, size: 0x8, addend: 0x0, symName: __ZNSt3mapIiiSt4lessIiESaISt4pairIKiiEEE11lower_boundERS3_, symObjAddr: 0xC40, symBinAddr: 0x100001430, symSize: 0x26 }
  - { offset: 0x26326, size: 0x8, addend: 0x0, symName: __ZSteqRKSt23_Rb_tree_const_iteratorISt4pairIKiiEES5_, symObjAddr: 0xC1D, symBinAddr: 0x10000140D, symSize: 0x23 }
  - { offset: 0x26365, size: 0x8, addend: 0x0, symName: __ZNKSt8_Rb_treeIiSt4pairIKiiESt10_Select1stIS2_ESt4lessIiESaIS2_EE3endEv, symObjAddr: 0xBF4, symBinAddr: 0x1000013E4, symSize: 0x29 }
  - { offset: 0x2638F, size: 0x8, addend: 0x0, symName: __ZNKSt8_Rb_treeIiSt4pairIKiiESt10_Select1stIS2_ESt4lessIiESaIS2_EE4findERS1_, symObjAddr: 0xB46, symBinAddr: 0x100001336, symSize: 0xAE }
  - { offset: 0x263DB, size: 0x8, addend: 0x0, symName: __ZNSt6vectorIiSaIiEE9push_backERKi, symObjAddr: 0xA8E, symBinAddr: 0x10000127E, symSize: 0xB8 }
  - { offset: 0x264AA, size: 0x8, addend: 0x0, symName: __ZNSt5dequeIiSaIiEED1Ev, symObjAddr: 0xA22, symBinAddr: 0x100001212, symSize: 0x6C }
  - { offset: 0x264F5, size: 0x8, addend: 0x0, symName: __ZNSt11_Deque_baseIiSaIiEED2Ev, symObjAddr: 0x9BA, symBinAddr: 0x1000011AA, symSize: 0x68 }
  - { offset: 0x26535, size: 0x8, addend: 0x0, symName: __ZNSt11_Deque_baseIiSaIiEEC2Ev, symObjAddr: 0x96E, symBinAddr: 0x10000115E, symSize: 0x4C }
  - { offset: 0x26583, size: 0x8, addend: 0x0, symName: __ZNSt11_Deque_baseIiSaIiEE11_Deque_implD1Ev, symObjAddr: 0x94A, symBinAddr: 0x10000113A, symSize: 0x24 }
  - { offset: 0x265F1, size: 0x8, addend: 0x0, symName: __ZNSt8_Rb_treeIiSt4pairIKiiESt10_Select1stIS2_ESt4lessIiESaIS2_EED1Ev, symObjAddr: 0x910, symBinAddr: 0x100001100, symSize: 0x3A }
  - { offset: 0x26651, size: 0x8, addend: 0x0, symName: __ZNSt8_Rb_treeIiSt4pairIKiiESt10_Select1stIS2_ESt4lessIiESaIS2_EE13_Rb_tree_implIS6_Lb1EEC1Ev, symObjAddr: 0x8D2, symBinAddr: 0x1000010C2, symSize: 0x3E }
  - { offset: 0x266E2, size: 0x8, addend: 0x0, symName: __ZNSt8_Rb_treeIiSt4pairIKiSt6vectorIiSaIiEEESt10_Select1stIS5_ESt4lessIiESaIS5_EED1Ev, symObjAddr: 0x898, symBinAddr: 0x100001088, symSize: 0x3A }
  - { offset: 0x26742, size: 0x8, addend: 0x0, symName: __ZNSt8_Rb_treeIiSt4pairIKiSt6vectorIiSaIiEEESt10_Select1stIS5_ESt4lessIiESaIS5_EE13_Rb_tree_implIS9_Lb1EEC1Ev, symObjAddr: 0x85A, symBinAddr: 0x10000104A, symSize: 0x3E }
  - { offset: 0x267AF, size: 0x8, addend: 0x0, symName: __ZNK9__gnu_cxx17__normal_iteratorIPiSt6vectorIiSaIiEEEdeEv, symObjAddr: 0x848, symBinAddr: 0x100001038, symSize: 0x12 }
  - { offset: 0x267D9, size: 0x8, addend: 0x0, symName: __ZN9__gnu_cxx17__normal_iteratorIPiSt6vectorIiSaIiEEEppEv, symObjAddr: 0x828, symBinAddr: 0x100001018, symSize: 0x20 }
  - { offset: 0x267FF, size: 0x8, addend: 0x0, symName: __ZN9__gnu_cxxneIPiSt6vectorIiSaIiEEEEbRKNS_17__normal_iteratorIT_T0_EESA_, symObjAddr: 0x7ED, symBinAddr: 0x100000FDD, symSize: 0x3B }
  - { offset: 0x26850, size: 0x8, addend: 0x0, symName: __ZNSt6vectorIiSaIiEE3endEv, symObjAddr: 0x7C4, symBinAddr: 0x100000FB4, symSize: 0x29 }
  - { offset: 0x2687A, size: 0x8, addend: 0x0, symName: __ZNSt6vectorIiSaIiEE5beginEv, symObjAddr: 0x79E, symBinAddr: 0x100000F8E, symSize: 0x26 }
  - { offset: 0x268A4, size: 0x8, addend: 0x0, symName: __ZNSt3mapIiSt6vectorIiSaIiEESt4lessIiESaISt4pairIKiS2_EEEixERS6_, symObjAddr: 0x6A4, symBinAddr: 0x100000E94, symSize: 0xFA }
  - { offset: 0x268F3, size: 0x8, addend: 0x0, symName: __ZNSt3mapIiiSt4lessIiESaISt4pairIKiiEEEixERS3_, symObjAddr: 0x5AA, symBinAddr: 0x100000D9A, symSize: 0xFA }
  - { offset: 0x26942, size: 0x8, addend: 0x0, symName: __ZNKSt3mapIiiSt4lessIiESaISt4pairIKiiEEE5countERS3_, symObjAddr: 0x54E, symBinAddr: 0x100000D3E, symSize: 0x5C }
  - { offset: 0x26979, size: 0x8, addend: 0x0, symName: __ZSt3maxImERKT_S2_S2_, symObjAddr: 0x522, symBinAddr: 0x100000D12, symSize: 0x2C }
  - { offset: 0x269C4, size: 0x8, addend: 0x0, symName: _main, symObjAddr: 0x4F0, symBinAddr: 0x100000CE0, symSize: 0x32 }
  - { offset: 0x269E3, size: 0x8, addend: 0x0, symName: __Z5solvev, symObjAddr: 0x33D, symBinAddr: 0x100000B2D, symSize: 0x1B3 }
  - { offset: 0x26AD3, size: 0x8, addend: 0x0, symName: __ZNSt5dequeIiSaIiEEC1Ev, symObjAddr: 0x322, symBinAddr: 0x100000B12, symSize: 0x1B }
  - { offset: 0x26B1D, size: 0x8, addend: 0x0, symName: __ZNSt3mapIiiSt4lessIiESaISt4pairIKiiEEED1Ev, symObjAddr: 0x306, symBinAddr: 0x100000AF6, symSize: 0x1C }
  - { offset: 0x26B5D, size: 0x8, addend: 0x0, symName: __ZNSt3mapIiiSt4lessIiESaISt4pairIKiiEEEC1Ev, symObjAddr: 0x2EA, symBinAddr: 0x100000ADA, symSize: 0x1C }
  - { offset: 0x26B9D, size: 0x8, addend: 0x0, symName: __ZNSt8_Rb_treeIiSt4pairIKiiESt10_Select1stIS2_ESt4lessIiESaIS2_EEC1Ev, symObjAddr: 0x2CE, symBinAddr: 0x100000ABE, symSize: 0x1C }
  - { offset: 0x26BEB, size: 0x8, addend: 0x0, symName: __ZNSt8_Rb_treeIiSt4pairIKiiESt10_Select1stIS2_ESt4lessIiESaIS2_EE13_Rb_tree_implIS6_Lb1EED1Ev, symObjAddr: 0x2AA, symBinAddr: 0x100000A9A, symSize: 0x24 }
  - { offset: 0x26C59, size: 0x8, addend: 0x0, symName: __ZNSt3mapIiSt6vectorIiSaIiEESt4lessIiESaISt4pairIKiS2_EEED1Ev, symObjAddr: 0x28E, symBinAddr: 0x100000A7E, symSize: 0x1C }
  - { offset: 0x26C99, size: 0x8, addend: 0x0, symName: __ZNSt3mapIiSt6vectorIiSaIiEESt4lessIiESaISt4pairIKiS2_EEEC1Ev, symObjAddr: 0x272, symBinAddr: 0x100000A62, symSize: 0x1C }
  - { offset: 0x26CD9, size: 0x8, addend: 0x0, symName: __ZNSt8_Rb_treeIiSt4pairIKiSt6vectorIiSaIiEEESt10_Select1stIS5_ESt4lessIiESaIS5_EEC1Ev, symObjAddr: 0x256, symBinAddr: 0x100000A46, symSize: 0x1C }
  - { offset: 0x26D27, size: 0x8, addend: 0x0, symName: __ZNSt8_Rb_treeIiSt4pairIKiSt6vectorIiSaIiEEESt10_Select1stIS5_ESt4lessIiESaIS5_EE13_Rb_tree_implIS9_Lb1EED1Ev, symObjAddr: 0x232, symBinAddr: 0x100000A22, symSize: 0x24 }
  - { offset: 0x26D78, size: 0x8, addend: 0x0, symName: __Z10cycleCheckiiRSt3mapIiSt6vectorIiSaIiEESt4lessIiESaISt4pairIKiS2_EEERS_IiiS4_SaIS5_IS6_iEEE, symObjAddr: 0xD7, symBinAddr: 0x1000008C7, symSize: 0x15B }
  - { offset: 0x26E43, size: 0x8, addend: 0x0, symName: __ZNSt15_Rb_tree_header8_M_resetEv, symObjAddr: 0x9C, symBinAddr: 0x10000088C, symSize: 0x3B }
  - { offset: 0x26E87, size: 0x8, addend: 0x0, symName: __ZNSt15_Rb_tree_headerC2Ev, symObjAddr: 0x76, symBinAddr: 0x100000866, symSize: 0x26 }
  - { offset: 0x26EA9, size: 0x8, addend: 0x0, symName: __ZSt16__deque_buf_sizem, symObjAddr: 0x4C, symBinAddr: 0x10000083C, symSize: 0x2A }
  - { offset: 0x26ED2, size: 0x8, addend: 0x0, symName: __ZSt3minImERKT_S2_S2_, symObjAddr: 0x21, symBinAddr: 0x100000811, symSize: 0x2B }
  - { offset: 0x26F1B, size: 0x8, addend: 0x0, symName: __ZdlPvS_, symObjAddr: 0x12, symBinAddr: 0x100000802, symSize: 0xF }
  - { offset: 0x26F51, size: 0x8, addend: 0x0, symName: __ZnwmPv, symObjAddr: 0x0, symBinAddr: 0x1000007F0, symSize: 0x12 }
...
